; Function Attrs: null_pointer_is_valid sspstrong uwtable
define hidden noundef ptr @pbl_field_descriptor_enum_type(ptr noundef readonly captures(none) %0) local_unnamed_addr #0 {
  %2 = getelementptr inbounds nuw i8, ptr %0, i64 68
  %3 = load i32, ptr %2, align 4
  %4 = icmp eq i32 %3, 14
  br i1 %4, label %5, label %11

5:                                                ; preds = %1
  %6 = getelementptr inbounds nuw i8, ptr %0, i64 24
  %7 = load ptr, ptr %6, align 8
  %8 = getelementptr inbounds nuw i8, ptr %0, i64 72
  %9 = load ptr, ptr %8, align 8
  %10 = tail call fastcc ptr @pbl_find_node_in_context(ptr noundef %7, ptr noundef %9, i32 noundef 6)
  br label %11

11:                                               ; preds = %1, %5
  %.0 = phi ptr [ %10, %5 ], [ null, %1 ]
  ret ptr %.0
}